#include <math.h>
#include <stdio.h>
#include <stdlib.h>
#include <string.h>
#define LEN 100
#define ASCII 100
#define MAX_N 100
#define MAX_N 100
#define L 100
#define MAX 100
#define ASC 100
#define null 0
#define Len 100
#define M 100
#define SUM 100
#define NUMBER 100
#define SIZE 100
#define N 100
#define Max 100
#define X 100
#define Y 100
#define A 100
#define MAXN 100
#define MAXSIZE 100

int main()
{
	int n,i;
	char s[L];
	gets(s);
	n=strlen(s);
	for(i=0;i<n;i++){
		if(s[i]==32&&s[i+1]==32){
			for(i;i<n;i++){
				s[i]=s[i+1];
			}
			i=0;
		}
	}
	for(i=0;i<n;i++){
		if((s[i]=='.'&&s[i+1]=='d')||(s[i]=='c'&&s[i+1]=='d'))
			s[i+1]='\0';
         }
	printf("%s", s);
	return 0;
}